; Function Attrs: mustprogress uwtable
define dso_local void @_ZN4Json13valueToStringB5cxx11El(ptr dead_on_unwind noalias writable sret(%"class.std::__cxx11::basic_string") align 8 %0, i64 noundef %1) local_unnamed_addr #0 personality ptr @__gxx_personality_v0 {
  %3 = alloca [25 x i8], align 16
  %4 = alloca %"class.std::allocator", align 1
  %5 = icmp eq i64 %1, -9223372036854775808
  br i1 %5, label %6, label %14

6:                                                ; preds = %2
  %7 = getelementptr inbounds i8, ptr %3, i64 24
  store i8 0, ptr %7, align 8
  br label %8

8:                                                ; preds = %8, %6
  %.0 = phi ptr [ %7, %6 ], [ %12, %8 ]
  %.0.i = phi i64 [ -9223372036854775808, %6 ], [ %13, %8 ]
  %9 = urem i64 %.0.i, 10
  %10 = trunc i64 %9 to i8
  %11 = or disjoint i8 %10, 48
  %12 = getelementptr inbounds i8, ptr %.0, i64 -1
  store i8 %11, ptr %12, align 1
  %13 = udiv i64 %.0.i, 10
  %.not.i = icmp ult i64 %.0.i, 10
  br i1 %.not.i, label %_ZN4JsonL12uintToStringEmRPc.exit10.sink.split, label %8, !llvm.loop !5

14:                                               ; preds = %2
  %15 = icmp slt i64 %1, 0
  br i1 %15, label %16, label %25

16:                                               ; preds = %14
  %17 = sub nsw i64 0, %1
  %18 = getelementptr inbounds i8, ptr %3, i64 24
  store i8 0, ptr %18, align 8
  br label %19

19:                                               ; preds = %19, %16
  %.1 = phi ptr [ %18, %16 ], [ %23, %19 ]
  %.0.i5 = phi i64 [ %17, %16 ], [ %24, %19 ]
  %20 = urem i64 %.0.i5, 10
  %21 = trunc i64 %20 to i8
  %22 = or disjoint i8 %21, 48
  %23 = getelementptr inbounds i8, ptr %.1, i64 -1
  store i8 %22, ptr %23, align 1
  %24 = udiv i64 %.0.i5, 10
  %.not.i6 = icmp ult i64 %.0.i5, 10
  br i1 %.not.i6, label %_ZN4JsonL12uintToStringEmRPc.exit10.sink.split, label %19, !llvm.loop !5

25:                                               ; preds = %14
  %26 = getelementptr inbounds i8, ptr %3, i64 24
  store i8 0, ptr %26, align 8
  br label %27

27:                                               ; preds = %27, %25
  %.2 = phi ptr [ %26, %25 ], [ %31, %27 ]
  %.0.i8 = phi i64 [ %1, %25 ], [ %32, %27 ]
  %28 = urem i64 %.0.i8, 10
  %29 = trunc i64 %28 to i8
  %30 = or disjoint i8 %29, 48
  %31 = getelementptr inbounds i8, ptr %.2, i64 -1
  store i8 %30, ptr %31, align 1
  %32 = udiv i64 %.0.i8, 10
  %.not.i9 = icmp ult i64 %.0.i8, 10
  br i1 %.not.i9, label %_ZN4JsonL12uintToStringEmRPc.exit10, label %27, !llvm.loop !5

_ZN4JsonL12uintToStringEmRPc.exit10.sink.split:   ; preds = %19, %8
  %.0.lcssa.sink = phi ptr [ %.0, %8 ], [ %.1, %19 ]
  %33 = getelementptr inbounds i8, ptr %.0.lcssa.sink, i64 -2
  store i8 45, ptr %33, align 1
  br label %_ZN4JsonL12uintToStringEmRPc.exit10

_ZN4JsonL12uintToStringEmRPc.exit10:              ; preds = %27, %_ZN4JsonL12uintToStringEmRPc.exit10.sink.split
  %.3 = phi ptr [ %33, %_ZN4JsonL12uintToStringEmRPc.exit10.sink.split ], [ %31, %27 ]
  call void @_ZNSaIcEC1Ev(ptr noundef nonnull align 1 dereferenceable(1) %4) #19
  %34 = invoke noundef ptr @_ZNSt7__cxx1112basic_stringIcSt11char_traitsIcESaIcEE13_M_local_dataEv(ptr noundef nonnull align 8 dereferenceable(32) %0)
          to label %.noexc unwind label %39

.noexc:                                           ; preds = %_ZN4JsonL12uintToStringEmRPc.exit10
  invoke void @_ZNSt7__cxx1112basic_stringIcSt11char_traitsIcESaIcEE12_Alloc_hiderC1EPcRKS3_(ptr noundef nonnull align 8 dereferenceable(8) %0, ptr noundef %34, ptr noundef nonnull align 1 dereferenceable(1) %4)
          to label %.noexc11 unwind label %39

35:                                               ; preds = %.noexc11
  %36 = landingpad { ptr, i32 }
          cleanup
  call void @_ZNSaIcED2Ev(ptr noundef nonnull align 1 dereferenceable(1) %0) #19
  br label %.body

.noexc11:                                         ; preds = %.noexc
  %37 = call noundef i64 @strlen(ptr noundef nonnull dereferenceable(1) %.3) #19
  %38 = getelementptr inbounds i8, ptr %.3, i64 %37
  invoke void @_ZNSt7__cxx1112basic_stringIcSt11char_traitsIcESaIcEE12_M_constructIPKcEEvT_S8_St20forward_iterator_tag(ptr noundef nonnull align 8 dereferenceable(32) %0, ptr noundef nonnull %.3, ptr noundef nonnull %38)
          to label %_ZNSt7__cxx1112basic_stringIcSt11char_traitsIcESaIcEEC2IS3_EEPKcRKS3_.exit unwind label %35

_ZNSt7__cxx1112basic_stringIcSt11char_traitsIcESaIcEEC2IS3_EEPKcRKS3_.exit: ; preds = %.noexc11
  call void @_ZNSaIcED1Ev(ptr noundef nonnull align 1 dereferenceable(1) %4) #19
  ret void

39:                                               ; preds = %.noexc, %_ZN4JsonL12uintToStringEmRPc.exit10
  %40 = landingpad { ptr, i32 }
          cleanup
  br label %.body

.body:                                            ; preds = %35, %39
  %eh.lpad-body = phi { ptr, i32 } [ %40, %39 ], [ %36, %35 ]
  call void @_ZNSaIcED1Ev(ptr noundef nonnull align 1 dereferenceable(1) %4) #19
  resume { ptr, i32 } %eh.lpad-body
}